; Function Attrs: mustprogress nofree norecurse nosync nounwind sspstrong willreturn memory(argmem: read) uwtable
define internal zeroext i1 @m25p80_wp_level_srwd_needed(ptr noundef readonly captures(none) %opaque) #11 {
entry:
  %wp_level = getelementptr inbounds nuw i8, ptr %opaque, i64 256
  %0 = load i8, ptr %wp_level, align 8
  %tobool = trunc i8 %0 to i1
  br i1 %tobool, label %lor.rhs, label %lor.end

lor.rhs:                                          ; preds = %entry
  %status_register_write_disabled = getelementptr inbounds nuw i8, ptr %opaque, i64 267
  %1 = load i8, ptr %status_register_write_disabled, align 1
  %tobool1 = trunc i8 %1 to i1
  br label %lor.end

lor.end:                                          ; preds = %lor.rhs, %entry
  %2 = phi i1 [ true, %entry ], [ %tobool1, %lor.rhs ]
  ret i1 %2
}